---
triple:          'arm64-apple-darwin'
binary-path:     '/Users/laining/Downloads/my_code_lib/LeetCode/LeetCode_CPP/Hash_table/Ransom_node/383/383'
relocations:
  - { offsetInCU: 0x2F2F, offset: 0x2F2F, size: 0x8, addend: 0x0, symName: __ZNSt3__124__put_character_sequenceB7v160006IcNS_11char_traitsIcEEEERNS_13basic_ostreamIT_T0_EES7_PKS4_m, symObjAddr: 0x870, symBinAddr: 0x1000033FC, symSize: 0x1EC }
  - { offsetInCU: 0x48B0, offset: 0x48B0, size: 0x8, addend: 0x0, symName: __ZNSt3__1lsB7v160006INS_11char_traitsIcEEEERNS_13basic_ostreamIcT_EES6_PKc, symObjAddr: 0x1C4, symBinAddr: 0x100002D50, symSize: 0x48 }
  - { offsetInCU: 0x48F6, offset: 0x48F6, size: 0x8, addend: 0x0, symName: __ZNSt3__14endlB7v160006IcNS_11char_traitsIcEEEERNS_13basic_ostreamIT_T0_EES7_, symObjAddr: 0x430, symBinAddr: 0x100002FBC, symSize: 0x58 }
  - { offsetInCU: 0x4969, offset: 0x4969, size: 0x8, addend: 0x0, symName: __ZNSt3__119__debug_db_insert_cB7v160006INS_12basic_stringIcNS_11char_traitsIcEENS_9allocatorIcEEEEEEvPT_, symObjAddr: 0x764, symBinAddr: 0x1000032F0, symSize: 0x10 }
  - { offsetInCU: 0x499A, offset: 0x499A, size: 0x8, addend: 0x0, symName: __ZNSt3__116__pad_and_outputB7v160006IcNS_11char_traitsIcEEEENS_19ostreambuf_iteratorIT_T0_EES6_PKS4_S8_S8_RNS_8ios_baseES4_, symObjAddr: 0xAAC, symBinAddr: 0x100003638, symSize: 0x240 }
  - { offsetInCU: 0x4A69, offset: 0x4A69, size: 0x8, addend: 0x0, symName: __ZNSt3__112__to_addressB7v160006IcEEPT_S2_, symObjAddr: 0xF24, symBinAddr: 0x100003AB0, symSize: 0x14 }
  - { offsetInCU: 0x4A9E, offset: 0x4A9E, size: 0x8, addend: 0x0, symName: __ZNSt3__19use_facetB7v160006INS_5ctypeIcEEEERKT_RKNS_6localeE, symObjAddr: 0x107C, symBinAddr: 0x100003C08, symSize: 0x2C }
  - { offsetInCU: 0x4F6D, offset: 0x4F6D, size: 0x8, addend: 0x0, symName: __ZNSt3__118__constexpr_strlenB7v160006EPKc, symObjAddr: 0x1114, symBinAddr: 0x100003CA0, symSize: 0x24 }
  - { offsetInCU: 0x74E4, offset: 0x74E4, size: 0x8, addend: 0x0, symName: _main, symObjAddr: 0x0, symBinAddr: 0x100002B8C, symSize: 0x16C }
  - { offsetInCU: 0x7528, offset: 0x7528, size: 0x8, addend: 0x0, symName: __ZNSt3__112basic_stringIcNS_11char_traitsIcEENS_9allocatorIcEEEC1B7v160006Ev, symObjAddr: 0x16C, symBinAddr: 0x100002CF8, symSize: 0x2C }
  - { offsetInCU: 0x7550, offset: 0x7550, size: 0x8, addend: 0x0, symName: __ZNSt3__112basic_stringIcNS_11char_traitsIcEENS_9allocatorIcEEEaSB7v160006EPKc, symObjAddr: 0x198, symBinAddr: 0x100002D24, symSize: 0x2C }
  - { offsetInCU: 0x75B2, offset: 0x75B2, size: 0x8, addend: 0x0, symName: __ZN8Solution12canConstructENSt3__112basic_stringIcNS0_11char_traitsIcEENS0_9allocatorIcEEEES6_, symObjAddr: 0x20C, symBinAddr: 0x100002D98, symSize: 0x1F8 }
  - { offsetInCU: 0x763E, offset: 0x763E, size: 0x8, addend: 0x0, symName: __ZNSt3__113basic_ostreamIcNS_11char_traitsIcEEElsB7v160006EPFRS3_S4_E, symObjAddr: 0x404, symBinAddr: 0x100002F90, symSize: 0x2C }
  - { offsetInCU: 0x7670, offset: 0x7670, size: 0x8, addend: 0x0, symName: __ZNKSt3__112basic_stringIcNS_11char_traitsIcEENS_9allocatorIcEEE4sizeB7v160006Ev, symObjAddr: 0x488, symBinAddr: 0x100003014, symSize: 0x54 }
  - { offsetInCU: 0x7694, offset: 0x7694, size: 0x8, addend: 0x0, symName: __ZNSt3__112basic_stringIcNS_11char_traitsIcEENS_9allocatorIcEEEixB7v160006Em, symObjAddr: 0x4DC, symBinAddr: 0x100003068, symSize: 0x30 }
  - { offsetInCU: 0x76C7, offset: 0x76C7, size: 0x8, addend: 0x0, symName: __ZNKSt3__112basic_stringIcNS_11char_traitsIcEENS_9allocatorIcEEE9__is_longB7v160006Ev, symObjAddr: 0x50C, symBinAddr: 0x100003098, symSize: 0x38 }
  - { offsetInCU: 0x76EB, offset: 0x76EB, size: 0x8, addend: 0x0, symName: __ZNKSt3__112basic_stringIcNS_11char_traitsIcEENS_9allocatorIcEEE15__get_long_sizeB7v160006Ev, symObjAddr: 0x544, symBinAddr: 0x1000030D0, symSize: 0x28 }
  - { offsetInCU: 0x770F, offset: 0x770F, size: 0x8, addend: 0x0, symName: __ZNKSt3__112basic_stringIcNS_11char_traitsIcEENS_9allocatorIcEEE16__get_short_sizeB7v160006Ev, symObjAddr: 0x56C, symBinAddr: 0x1000030F8, symSize: 0x34 }
  - { offsetInCU: 0x7733, offset: 0x7733, size: 0x8, addend: 0x0, symName: __ZNKSt3__117__compressed_pairINS_12basic_stringIcNS_11char_traitsIcEENS_9allocatorIcEEE5__repES5_E5firstB7v160006Ev, symObjAddr: 0x5A0, symBinAddr: 0x10000312C, symSize: 0x24 }
  - { offsetInCU: 0x7757, offset: 0x7757, size: 0x8, addend: 0x0, symName: __ZNKSt3__122__compressed_pair_elemINS_12basic_stringIcNS_11char_traitsIcEENS_9allocatorIcEEE5__repELi0ELb0EE5__getB7v160006Ev, symObjAddr: 0x5C4, symBinAddr: 0x100003150, symSize: 0x14 }
  - { offsetInCU: 0x777B, offset: 0x777B, size: 0x8, addend: 0x0, symName: __ZNSt3__112basic_stringIcNS_11char_traitsIcEENS_9allocatorIcEEE13__get_pointerB7v160006Ev, symObjAddr: 0x5D8, symBinAddr: 0x100003164, symSize: 0x54 }
  - { offsetInCU: 0x779F, offset: 0x779F, size: 0x8, addend: 0x0, symName: __ZNSt3__112basic_stringIcNS_11char_traitsIcEENS_9allocatorIcEEE18__get_long_pointerB7v160006Ev, symObjAddr: 0x62C, symBinAddr: 0x1000031B8, symSize: 0x28 }
  - { offsetInCU: 0x77C3, offset: 0x77C3, size: 0x8, addend: 0x0, symName: __ZNSt3__112basic_stringIcNS_11char_traitsIcEENS_9allocatorIcEEE19__get_short_pointerB7v160006Ev, symObjAddr: 0x654, symBinAddr: 0x1000031E0, symSize: 0x28 }
  - { offsetInCU: 0x77E7, offset: 0x77E7, size: 0x8, addend: 0x0, symName: __ZNSt3__117__compressed_pairINS_12basic_stringIcNS_11char_traitsIcEENS_9allocatorIcEEE5__repES5_E5firstB7v160006Ev, symObjAddr: 0x67C, symBinAddr: 0x100003208, symSize: 0x24 }
  - { offsetInCU: 0x780B, offset: 0x780B, size: 0x8, addend: 0x0, symName: __ZNSt3__122__compressed_pair_elemINS_12basic_stringIcNS_11char_traitsIcEENS_9allocatorIcEEE5__repELi0ELb0EE5__getB7v160006Ev, symObjAddr: 0x6A0, symBinAddr: 0x10000322C, symSize: 0x14 }
  - { offsetInCU: 0x782F, offset: 0x782F, size: 0x8, addend: 0x0, symName: __ZNSt3__114pointer_traitsIPcE10pointer_toB7v160006ERc, symObjAddr: 0x6B4, symBinAddr: 0x100003240, symSize: 0x14 }
  - { offsetInCU: 0x7851, offset: 0x7851, size: 0x8, addend: 0x0, symName: __ZNSt3__112basic_stringIcNS_11char_traitsIcEENS_9allocatorIcEEEC2B7v160006Ev, symObjAddr: 0x6C8, symBinAddr: 0x100003254, symSize: 0x54 }
  - { offsetInCU: 0x787E, offset: 0x787E, size: 0x8, addend: 0x0, symName: __ZNSt3__117__compressed_pairINS_12basic_stringIcNS_11char_traitsIcEENS_9allocatorIcEEE5__repES5_EC1B7v160006INS_18__default_init_tagESA_EEOT_OT0_, symObjAddr: 0x71C, symBinAddr: 0x1000032A8, symSize: 0x3C }
  - { offsetInCU: 0x78D4, offset: 0x78D4, size: 0x8, addend: 0x0, symName: __ZNSt3__112basic_stringIcNS_11char_traitsIcEENS_9allocatorIcEEE14__default_initB7v160006Ev, symObjAddr: 0x774, symBinAddr: 0x100003300, symSize: 0x40 }
  - { offsetInCU: 0x78F8, offset: 0x78F8, size: 0x8, addend: 0x0, symName: __ZNSt3__117__compressed_pairINS_12basic_stringIcNS_11char_traitsIcEENS_9allocatorIcEEE5__repES5_EC2B7v160006INS_18__default_init_tagESA_EEOT_OT0_, symObjAddr: 0x7B4, symBinAddr: 0x100003340, symSize: 0x3C }
  - { offsetInCU: 0x794E, offset: 0x794E, size: 0x8, addend: 0x0, symName: __ZNSt3__122__compressed_pair_elemINS_12basic_stringIcNS_11char_traitsIcEENS_9allocatorIcEEE5__repELi0ELb0EEC2B7v160006ENS_18__default_init_tagE, symObjAddr: 0x7F0, symBinAddr: 0x10000337C, symSize: 0x14 }
  - { offsetInCU: 0x7980, offset: 0x7980, size: 0x8, addend: 0x0, symName: __ZNSt3__122__compressed_pair_elemINS_9allocatorIcEELi1ELb1EEC2B7v160006ENS_18__default_init_tagE, symObjAddr: 0x804, symBinAddr: 0x100003390, symSize: 0x2C }
  - { offsetInCU: 0x79B2, offset: 0x79B2, size: 0x8, addend: 0x0, symName: __ZNSt3__19allocatorIcEC2B7v160006Ev, symObjAddr: 0x830, symBinAddr: 0x1000033BC, symSize: 0x2C }
  - { offsetInCU: 0x79DA, offset: 0x79DA, size: 0x8, addend: 0x0, symName: __ZNSt3__116__non_trivial_ifILb1ENS_9allocatorIcEEEC2B7v160006Ev, symObjAddr: 0x85C, symBinAddr: 0x1000033E8, symSize: 0x14 }
  - { offsetInCU: 0x7A02, offset: 0x7A02, size: 0x8, addend: 0x0, symName: __ZNSt3__111char_traitsIcE6lengthEPKc, symObjAddr: 0xA5C, symBinAddr: 0x1000035E8, symSize: 0x34 }
  - { offsetInCU: 0x7A42, offset: 0x7A42, size: 0x8, addend: 0x0, symName: __ZNKSt3__113basic_ostreamIcNS_11char_traitsIcEEE6sentrycvbB7v160006Ev, symObjAddr: 0xA90, symBinAddr: 0x10000361C, symSize: 0x1C }
  - { offsetInCU: 0x7A66, offset: 0x7A66, size: 0x8, addend: 0x0, symName: __ZNSt3__119ostreambuf_iteratorIcNS_11char_traitsIcEEEC1B7v160006ERNS_13basic_ostreamIcS2_EE, symObjAddr: 0xCEC, symBinAddr: 0x100003878, symSize: 0x34 }
  - { offsetInCU: 0x7A9C, offset: 0x7A9C, size: 0x8, addend: 0x0, symName: __ZNKSt3__18ios_base5flagsB7v160006Ev, symObjAddr: 0xD20, symBinAddr: 0x1000038AC, symSize: 0x18 }
  - { offsetInCU: 0x7AC2, offset: 0x7AC2, size: 0x8, addend: 0x0, symName: __ZNKSt3__19basic_iosIcNS_11char_traitsIcEEE4fillB7v160006Ev, symObjAddr: 0xD38, symBinAddr: 0x1000038C4, symSize: 0x64 }
  - { offsetInCU: 0x7AE8, offset: 0x7AE8, size: 0x8, addend: 0x0, symName: __ZNKSt3__119ostreambuf_iteratorIcNS_11char_traitsIcEEE6failedB7v160006Ev, symObjAddr: 0xD9C, symBinAddr: 0x100003928, symSize: 0x24 }
  - { offsetInCU: 0x7B0C, offset: 0x7B0C, size: 0x8, addend: 0x0, symName: __ZNSt3__19basic_iosIcNS_11char_traitsIcEEE8setstateB7v160006Ej, symObjAddr: 0xDC0, symBinAddr: 0x10000394C, symSize: 0x2C }
  - { offsetInCU: 0x7B3F, offset: 0x7B3F, size: 0x8, addend: 0x0, symName: __ZNKSt3__18ios_base5widthB7v160006Ev, symObjAddr: 0xDEC, symBinAddr: 0x100003978, symSize: 0x18 }
  - { offsetInCU: 0x7B65, offset: 0x7B65, size: 0x8, addend: 0x0, symName: __ZNSt3__115basic_streambufIcNS_11char_traitsIcEEE5sputnB7v160006EPKcl, symObjAddr: 0xE04, symBinAddr: 0x100003990, symSize: 0x3C }
  - { offsetInCU: 0x7BA5, offset: 0x7BA5, size: 0x8, addend: 0x0, symName: __ZNSt3__112basic_stringIcNS_11char_traitsIcEENS_9allocatorIcEEEC1B7v160006Emc, symObjAddr: 0xE40, symBinAddr: 0x1000039CC, symSize: 0x3C }
  - { offsetInCU: 0x7BEB, offset: 0x7BEB, size: 0x8, addend: 0x0, symName: __ZNSt3__112basic_stringIcNS_11char_traitsIcEENS_9allocatorIcEEE4dataB7v160006Ev, symObjAddr: 0xE7C, symBinAddr: 0x100003A08, symSize: 0x28 }
  - { offsetInCU: 0x7C0F, offset: 0x7C0F, size: 0x8, addend: 0x0, symName: __ZNSt3__18ios_base5widthB7v160006El, symObjAddr: 0xEA4, symBinAddr: 0x100003A30, symSize: 0x2C }
  - { offsetInCU: 0x7C53, offset: 0x7C53, size: 0x8, addend: 0x0, symName: __ZNSt3__112basic_stringIcNS_11char_traitsIcEENS_9allocatorIcEEEC2B7v160006Emc, symObjAddr: 0xED0, symBinAddr: 0x100003A5C, symSize: 0x54 }
  - { offsetInCU: 0x7C99, offset: 0x7C99, size: 0x8, addend: 0x0, symName: __ZNSt3__119ostreambuf_iteratorIcNS_11char_traitsIcEEEC2B7v160006ERNS_13basic_ostreamIcS2_EE, symObjAddr: 0xF38, symBinAddr: 0x100003AC4, symSize: 0x54 }
  - { offsetInCU: 0x7CCF, offset: 0x7CCF, size: 0x8, addend: 0x0, symName: __ZNKSt3__19basic_iosIcNS_11char_traitsIcEEE5rdbufB7v160006Ev, symObjAddr: 0xF8C, symBinAddr: 0x100003B18, symSize: 0x24 }
  - { offsetInCU: 0x7CF5, offset: 0x7CF5, size: 0x8, addend: 0x0, symName: __ZNKSt3__18ios_base5rdbufB7v160006Ev, symObjAddr: 0xFB0, symBinAddr: 0x100003B3C, symSize: 0x18 }
  - { offsetInCU: 0x7D19, offset: 0x7D19, size: 0x8, addend: 0x0, symName: __ZNSt3__111char_traitsIcE11eq_int_typeEii, symObjAddr: 0xFC8, symBinAddr: 0x100003B54, symSize: 0x28 }
  - { offsetInCU: 0x7D4A, offset: 0x7D4A, size: 0x8, addend: 0x0, symName: __ZNSt3__111char_traitsIcE3eofEv, symObjAddr: 0xFF0, symBinAddr: 0x100003B7C, symSize: 0x8 }
  - { offsetInCU: 0x7D5C, offset: 0x7D5C, size: 0x8, addend: 0x0, symName: __ZNKSt3__19basic_iosIcNS_11char_traitsIcEEE5widenB7v160006Ec, symObjAddr: 0xFF8, symBinAddr: 0x100003B84, symSize: 0x84 }
  - { offsetInCU: 0x7DC8, offset: 0x7DC8, size: 0x8, addend: 0x0, symName: __ZNKSt3__15ctypeIcE5widenB7v160006Ec, symObjAddr: 0x10A8, symBinAddr: 0x100003C34, symSize: 0x38 }
  - { offsetInCU: 0x7DFB, offset: 0x7DFB, size: 0x8, addend: 0x0, symName: __ZNSt3__18ios_base8setstateB7v160006Ej, symObjAddr: 0x10E0, symBinAddr: 0x100003C6C, symSize: 0x34 }
...
